target datalayout = "e-m:e-p270:32:32-p271:32:32-p272:64:64-i64:64-i128:128-f80:128-n8:16:32:64-S128"
target triple = "x86_64-pc-linux-gnu"

%"class.arrow::SmallBasicDecimal" = type { i32 }
%"class.arrow::BasicDecimal32" = type { %"class.arrow::SmallBasicDecimal" }

; Function Attrs: mustprogress nounwind uwtable
define linkonce_odr void @_ZN5arrow17SmallBasicDecimalIiEC2IiiEET_(ptr noundef nonnull align 4 dereferenceable(4) %0, i32 noundef %1) unnamed_addr #0 comdat align 2 {
  %3 = alloca ptr, align 8
  %4 = alloca i32, align 4
  store ptr %0, ptr %3, align 8, !tbaa !25
  store i32 %1, ptr %4, align 4, !tbaa !30
  %5 = load ptr, ptr %3, align 8
  %6 = getelementptr inbounds nuw %"class.arrow::SmallBasicDecimal", ptr %5, i32 0, i32 0
  %7 = load i32, ptr %4, align 4, !tbaa !30
  store i32 %7, ptr %6, align 4, !tbaa !27
  ret void
}

; Function Attrs: inlinehint mustprogress nounwind uwtable
define linkonce_odr void @_ZN5arrow14BasicDecimal32CI2NS_17SmallBasicDecimalIiEEIiiEET_(ptr noundef nonnull align 4 dereferenceable(4) %0, i32 noundef %1) unnamed_addr #3 comdat align 2 {
  %3 = alloca ptr, align 8
  %4 = alloca i32, align 4
  store ptr %0, ptr %3, align 8, !tbaa !41
  store i32 %1, ptr %4, align 4, !tbaa !30
  %5 = load ptr, ptr %3, align 8
  %6 = load i32, ptr %4, align 4, !tbaa !30
  call void @_ZN5arrow17SmallBasicDecimalIiEC2IiiEET_(ptr noundef nonnull align 4 dereferenceable(4) %5, i32 noundef %6) #12
  ret void
}

; Function Attrs: mustprogress nounwind uwtable
define weak_odr void @_ZN5arrow17SmallBasicDecimalIiEC2Ev(ptr noundef nonnull align 4 dereferenceable(4) %0) unnamed_addr #0 comdat($_ZN5arrow17SmallBasicDecimalIiEC5Ev) align 2 {
  %2 = alloca ptr, align 8
  store ptr %0, ptr %2, align 8, !tbaa !25
  %3 = load ptr, ptr %2, align 8
  %4 = getelementptr inbounds nuw %"class.arrow::SmallBasicDecimal", ptr %3, i32 0, i32 0
  store i32 0, ptr %4, align 4, !tbaa !27
  ret void
}

; Function Attrs: mustprogress nounwind uwtable
define noundef i32 @_ZNK5arrow14BasicDecimal326DivideERKS0_PS0_S3_(ptr noundef nonnull align 4 dereferenceable(4) %0, ptr noundef nonnull align 4 dereferenceable(4) %1, ptr noundef %2, ptr noundef %3) #0 align 2 {
  %5 = alloca i32, align 4
  %6 = alloca ptr, align 8
  %7 = alloca ptr, align 8
  %8 = alloca ptr, align 8
  %9 = alloca ptr, align 8
  %10 = alloca %"class.arrow::BasicDecimal32", align 4
  %11 = alloca %"class.arrow::BasicDecimal32", align 4
  store ptr %0, ptr %6, align 8, !tbaa !41
  store ptr %1, ptr %7, align 8, !tbaa !41
  store ptr %2, ptr %8, align 8, !tbaa !41
  store ptr %3, ptr %9, align 8, !tbaa !41
  %12 = load ptr, ptr %6, align 8
  %13 = load ptr, ptr %7, align 8, !tbaa !41
  %14 = getelementptr inbounds nuw %"class.arrow::SmallBasicDecimal", ptr %13, i32 0, i32 0
  %15 = load i32, ptr %14, align 4, !tbaa !27
  %16 = icmp eq i32 %15, 0
  br i1 %16, label %17, label %18

17:                                               ; preds = %4
  store i32 1, ptr %5, align 4
  br label %37

18:                                               ; preds = %4
  call void @llvm.lifetime.start.p0(i64 4, ptr %10) #12
  %19 = getelementptr inbounds nuw %"class.arrow::SmallBasicDecimal", ptr %12, i32 0, i32 0
  %20 = load i32, ptr %19, align 4, !tbaa !27
  %21 = load ptr, ptr %7, align 8, !tbaa !41
  %22 = getelementptr inbounds nuw %"class.arrow::SmallBasicDecimal", ptr %21, i32 0, i32 0
  %23 = load i32, ptr %22, align 4, !tbaa !27
  %24 = sdiv i32 %20, %23
  call void @_ZN5arrow14BasicDecimal32CI2NS_17SmallBasicDecimalIiEEIiiEET_(ptr noundef nonnull align 4 dereferenceable(4) %10, i32 noundef %24) #12
  %25 = load ptr, ptr %8, align 8, !tbaa !41
  call void @llvm.memcpy.p0.p0.i64(ptr align 4 %25, ptr align 4 %10, i64 4, i1 false)
  call void @llvm.lifetime.end.p0(i64 4, ptr %10) #12
  %26 = load ptr, ptr %9, align 8, !tbaa !41
  %27 = icmp ne ptr %26, null
  br i1 %27, label %28, label %36

28:                                               ; preds = %18
  call void @llvm.lifetime.start.p0(i64 4, ptr %11) #12
  %29 = getelementptr inbounds nuw %"class.arrow::SmallBasicDecimal", ptr %12, i32 0, i32 0
  %30 = load i32, ptr %29, align 4, !tbaa !27
  %31 = load ptr, ptr %7, align 8, !tbaa !41
  %32 = getelementptr inbounds nuw %"class.arrow::SmallBasicDecimal", ptr %31, i32 0, i32 0
  %33 = load i32, ptr %32, align 4, !tbaa !27
  %34 = srem i32 %30, %33
  call void @_ZN5arrow14BasicDecimal32CI2NS_17SmallBasicDecimalIiEEIiiEET_(ptr noundef nonnull align 4 dereferenceable(4) %11, i32 noundef %34) #12
  %35 = load ptr, ptr %9, align 8, !tbaa !41
  call void @llvm.memcpy.p0.p0.i64(ptr align 4 %35, ptr align 4 %11, i64 4, i1 false)
  call void @llvm.lifetime.end.p0(i64 4, ptr %11) #12
  br label %36

36:                                               ; preds = %28, %18
  store i32 0, ptr %5, align 4
  br label %37

37:                                               ; preds = %36, %17
  %38 = load i32, ptr %5, align 4
  ret i32 %38
}

; Function Attrs: inlinehint mustprogress nounwind uwtable
define linkonce_odr void @_ZN5arrow14BasicDecimal32C2Ev(ptr noundef nonnull align 4 dereferenceable(4) %0) unnamed_addr #3 comdat align 2 {
  %2 = alloca ptr, align 8
  store ptr %0, ptr %2, align 8, !tbaa !41
  %3 = load ptr, ptr %2, align 8
  call void @_ZN5arrow17SmallBasicDecimalIiEC2Ev(ptr noundef nonnull align 4 dereferenceable(4) %3) #12
  ret void
}

; Function Attrs: mustprogress nounwind uwtable
define i32 @_ZN5arrowrmERKNS_14BasicDecimal32ES2_(ptr noundef nonnull align 4 dereferenceable(4) %0, ptr noundef nonnull align 4 dereferenceable(4) %1) #0 {
  %3 = alloca %"class.arrow::BasicDecimal32", align 4
  %4 = alloca ptr, align 8
  %5 = alloca ptr, align 8
  %6 = alloca %"class.arrow::BasicDecimal32", align 4
  %7 = alloca i32, align 4
  store ptr %0, ptr %4, align 8, !tbaa !41
  store ptr %1, ptr %5, align 8, !tbaa !41
  call void @_ZN5arrow14BasicDecimal32C2Ev(ptr noundef nonnull align 4 dereferenceable(4) %3) #12
  call void @llvm.lifetime.start.p0(i64 4, ptr %6) #12
  call void @_ZN5arrow14BasicDecimal32C2Ev(ptr noundef nonnull align 4 dereferenceable(4) %6) #12
  call void @llvm.lifetime.start.p0(i64 4, ptr %7) #12
  %8 = load ptr, ptr %4, align 8, !tbaa !41
  %9 = load ptr, ptr %5, align 8, !tbaa !41
  %10 = call noundef i32 @_ZNK5arrow14BasicDecimal326DivideERKS0_PS0_S3_(ptr noundef nonnull align 4 dereferenceable(4) %8, ptr noundef nonnull align 4 dereferenceable(4) %9, ptr noundef %6, ptr noundef %3)
  store i32 %10, ptr %7, align 4, !tbaa !50
  br label %11

11:                                               ; preds = %12, %2
  br i1 false, label %12, label %13

12:                                               ; preds = %11
  br label %11, !llvm.loop !148

13:                                               ; preds = %11
  br label %14

14:                                               ; preds = %15, %13
  br i1 false, label %15, label %16

15:                                               ; preds = %14
  br label %14, !llvm.loop !149

16:                                               ; preds = %14
  br label %17

17:                                               ; preds = %18, %16
  br i1 false, label %18, label %19

18:                                               ; preds = %17
  br label %17, !llvm.loop !150

19:                                               ; preds = %17
  call void @llvm.lifetime.end.p0(i64 4, ptr %7) #12
  call void @llvm.lifetime.end.p0(i64 4, ptr %6) #12
  %20 = getelementptr inbounds nuw %"class.arrow::BasicDecimal32", ptr %3, i32 0, i32 0
  %21 = getelementptr inbounds nuw %"class.arrow::SmallBasicDecimal", ptr %20, i32 0, i32 0
  %22 = load i32, ptr %21, align 4
  ret i32 %22
}