; Function Attrs: mustprogress nofree norecurse nosync nounwind willreturn memory(argmem: read) uwtable
define range(i32 -2147483647, -2147483648) i32 @_ZN5arrowrmERKNS_14BasicDecimal32ES2_(ptr noundef nonnull readonly align 4 captures(none) dereferenceable(4) %0, ptr noundef nonnull readonly align 4 captures(none) dereferenceable(4) %1) local_unnamed_addr #7 {
  %3 = load i32, ptr %1, align 4, !tbaa !10
  %4 = icmp eq i32 %3, 0
  br i1 %4, label %_ZNK5arrow14BasicDecimal326DivideERKS0_PS0_S3_.exit, label %5

5:                                                ; preds = %2
  %6 = load i32, ptr %0, align 4, !tbaa !10
  %7 = srem i32 %6, %3
  br label %_ZNK5arrow14BasicDecimal326DivideERKS0_PS0_S3_.exit

_ZNK5arrow14BasicDecimal326DivideERKS0_PS0_S3_.exit: ; preds = %2, %5
  %.sroa.02.0 = phi i32 [ 0, %2 ], [ %7, %5 ]
  ret i32 %.sroa.02.0
}